target datalayout = "e-m:e-p270:32:32-p271:32:32-p272:64:64-i64:64-i128:128-f80:128-n8:16:32:64-S128"
target triple = "x86_64-unknown-linux-gnu"

%"class.OpenColorIO_v2_4dev::XmlReaderElementStack" = type { ptr, %"class.std::vector.10" }
%"class.std::vector.10" = type { %"struct.std::_Vector_base.11" }
%"struct.std::_Vector_base.11" = type { %"struct.std::_Vector_base<std::shared_ptr<OpenColorIO_v2_4dev::XmlReaderElement>, std::allocator<std::shared_ptr<OpenColorIO_v2_4dev::XmlReaderElement>>>::_Vector_impl" }
%"struct.std::_Vector_base<std::shared_ptr<OpenColorIO_v2_4dev::XmlReaderElement>, std::allocator<std::shared_ptr<OpenColorIO_v2_4dev::XmlReaderElement>>>::_Vector_impl" = type { %"struct.std::_Vector_base<std::shared_ptr<OpenColorIO_v2_4dev::XmlReaderElement>, std::allocator<std::shared_ptr<OpenColorIO_v2_4dev::XmlReaderElement>>>::_Vector_impl_data" }
%"struct.std::_Vector_base<std::shared_ptr<OpenColorIO_v2_4dev::XmlReaderElement>, std::allocator<std::shared_ptr<OpenColorIO_v2_4dev::XmlReaderElement>>>::_Vector_impl_data" = type { ptr, ptr, ptr }
%"class.__gnu_cxx::__normal_iterator.37" = type { ptr }

; Function Attrs: mustprogress nounwind uwtable
define linkonce_odr hidden noundef nonnull align 8 dereferenceable(8) ptr @_ZNK9__gnu_cxx17__normal_iteratorIPKSt10shared_ptrIN19OpenColorIO_v2_4dev16XmlReaderElementEESt6vectorIS4_SaIS4_EEE4baseEv(ptr noundef nonnull align 8 dereferenceable(8) %this) #4 comdat align 2 {
entry:
  %this.addr = alloca ptr, align 8
  store ptr %this, ptr %this.addr, align 8
  %this1 = load ptr, ptr %this.addr, align 8
  %_M_current = getelementptr inbounds %"class.__gnu_cxx::__normal_iterator.37", ptr %this1, i32 0, i32 0
  ret ptr %_M_current
}

; Function Attrs: mustprogress nounwind uwtable
define linkonce_odr hidden void @_ZN9__gnu_cxx17__normal_iteratorIPKSt10shared_ptrIN19OpenColorIO_v2_4dev16XmlReaderElementEESt6vectorIS4_SaIS4_EEEC2ERKS6_(ptr noundef nonnull align 8 dereferenceable(8) %this, ptr noundef nonnull align 8 dereferenceable(8) %__i) unnamed_addr #4 comdat align 2 {
entry:
  %this.addr = alloca ptr, align 8
  %__i.addr = alloca ptr, align 8
  store ptr %this, ptr %this.addr, align 8
  store ptr %__i, ptr %__i.addr, align 8
  %this1 = load ptr, ptr %this.addr, align 8
  %_M_current = getelementptr inbounds %"class.__gnu_cxx::__normal_iterator.37", ptr %this1, i32 0, i32 0
  %0 = load ptr, ptr %__i.addr, align 8
  %1 = load ptr, ptr %0, align 8
  store ptr %1, ptr %_M_current, align 8
  ret void
}

; Function Attrs: mustprogress nounwind uwtable
define linkonce_odr hidden noundef zeroext i1 @_ZN9__gnu_cxxeqIPKSt10shared_ptrIN19OpenColorIO_v2_4dev16XmlReaderElementEESt6vectorIS4_SaIS4_EEEEbRKNS_17__normal_iteratorIT_T0_EESF_(ptr noundef nonnull align 8 dereferenceable(8) %__lhs, ptr noundef nonnull align 8 dereferenceable(8) %__rhs) #4 comdat {
entry:
  %__lhs.addr = alloca ptr, align 8
  %__rhs.addr = alloca ptr, align 8
  store ptr %__lhs, ptr %__lhs.addr, align 8
  store ptr %__rhs, ptr %__rhs.addr, align 8
  %0 = load ptr, ptr %__lhs.addr, align 8
  %call = call noundef nonnull align 8 dereferenceable(8) ptr @_ZNK9__gnu_cxx17__normal_iteratorIPKSt10shared_ptrIN19OpenColorIO_v2_4dev16XmlReaderElementEESt6vectorIS4_SaIS4_EEE4baseEv(ptr noundef nonnull align 8 dereferenceable(8) %0) #3
  %1 = load ptr, ptr %call, align 8
  %2 = load ptr, ptr %__rhs.addr, align 8
  %call1 = call noundef nonnull align 8 dereferenceable(8) ptr @_ZNK9__gnu_cxx17__normal_iteratorIPKSt10shared_ptrIN19OpenColorIO_v2_4dev16XmlReaderElementEESt6vectorIS4_SaIS4_EEE4baseEv(ptr noundef nonnull align 8 dereferenceable(8) %2) #3
  %3 = load ptr, ptr %call1, align 8
  %cmp = icmp eq ptr %1, %3
  ret i1 %cmp
}

; Function Attrs: mustprogress nounwind uwtable
define linkonce_odr hidden ptr @_ZNKSt6vectorISt10shared_ptrIN19OpenColorIO_v2_4dev16XmlReaderElementEESaIS3_EE3endEv(ptr noundef nonnull align 8 dereferenceable(24) %this) #4 comdat align 2 {
entry:
  %retval = alloca %"class.__gnu_cxx::__normal_iterator.37", align 8
  %this.addr = alloca ptr, align 8
  store ptr %this, ptr %this.addr, align 8
  %this1 = load ptr, ptr %this.addr, align 8
  %_M_impl = getelementptr inbounds %"struct.std::_Vector_base.11", ptr %this1, i32 0, i32 0
  %_M_finish = getelementptr inbounds %"struct.std::_Vector_base<std::shared_ptr<OpenColorIO_v2_4dev::XmlReaderElement>, std::allocator<std::shared_ptr<OpenColorIO_v2_4dev::XmlReaderElement>>>::_Vector_impl_data", ptr %_M_impl, i32 0, i32 1
  call void @_ZN9__gnu_cxx17__normal_iteratorIPKSt10shared_ptrIN19OpenColorIO_v2_4dev16XmlReaderElementEESt6vectorIS4_SaIS4_EEEC2ERKS6_(ptr noundef nonnull align 8 dereferenceable(8) %retval, ptr noundef nonnull align 8 dereferenceable(8) %_M_finish) #3
  %coerce.dive = getelementptr inbounds %"class.__gnu_cxx::__normal_iterator.37", ptr %retval, i32 0, i32 0
  %0 = load ptr, ptr %coerce.dive, align 8
  ret ptr %0
}

; Function Attrs: mustprogress nounwind uwtable
define linkonce_odr hidden ptr @_ZNKSt6vectorISt10shared_ptrIN19OpenColorIO_v2_4dev16XmlReaderElementEESaIS3_EE5beginEv(ptr noundef nonnull align 8 dereferenceable(24) %this) #4 comdat align 2 {
entry:
  %retval = alloca %"class.__gnu_cxx::__normal_iterator.37", align 8
  %this.addr = alloca ptr, align 8
  store ptr %this, ptr %this.addr, align 8
  %this1 = load ptr, ptr %this.addr, align 8
  %_M_impl = getelementptr inbounds %"struct.std::_Vector_base.11", ptr %this1, i32 0, i32 0
  %_M_start = getelementptr inbounds %"struct.std::_Vector_base<std::shared_ptr<OpenColorIO_v2_4dev::XmlReaderElement>, std::allocator<std::shared_ptr<OpenColorIO_v2_4dev::XmlReaderElement>>>::_Vector_impl_data", ptr %_M_impl, i32 0, i32 0
  call void @_ZN9__gnu_cxx17__normal_iteratorIPKSt10shared_ptrIN19OpenColorIO_v2_4dev16XmlReaderElementEESt6vectorIS4_SaIS4_EEEC2ERKS6_(ptr noundef nonnull align 8 dereferenceable(8) %retval, ptr noundef nonnull align 8 dereferenceable(8) %_M_start) #3
  %coerce.dive = getelementptr inbounds %"class.__gnu_cxx::__normal_iterator.37", ptr %retval, i32 0, i32 0
  %0 = load ptr, ptr %coerce.dive, align 8
  ret ptr %0
}

; Function Attrs: mustprogress nounwind uwtable
define linkonce_odr hidden noundef zeroext i1 @_ZNKSt6vectorISt10shared_ptrIN19OpenColorIO_v2_4dev16XmlReaderElementEESaIS3_EE5emptyEv(ptr noundef nonnull align 8 dereferenceable(24) %this) #4 comdat align 2 {
entry:
  %this.addr = alloca ptr, align 8
  %ref.tmp = alloca %"class.__gnu_cxx::__normal_iterator.37", align 8
  %ref.tmp2 = alloca %"class.__gnu_cxx::__normal_iterator.37", align 8
  store ptr %this, ptr %this.addr, align 8
  %this1 = load ptr, ptr %this.addr, align 8
  %call = call ptr @_ZNKSt6vectorISt10shared_ptrIN19OpenColorIO_v2_4dev16XmlReaderElementEESaIS3_EE5beginEv(ptr noundef nonnull align 8 dereferenceable(24) %this1) #3
  %coerce.dive = getelementptr inbounds %"class.__gnu_cxx::__normal_iterator.37", ptr %ref.tmp, i32 0, i32 0
  store ptr %call, ptr %coerce.dive, align 8
  %call3 = call ptr @_ZNKSt6vectorISt10shared_ptrIN19OpenColorIO_v2_4dev16XmlReaderElementEESaIS3_EE3endEv(ptr noundef nonnull align 8 dereferenceable(24) %this1) #3
  %coerce.dive4 = getelementptr inbounds %"class.__gnu_cxx::__normal_iterator.37", ptr %ref.tmp2, i32 0, i32 0
  store ptr %call3, ptr %coerce.dive4, align 8
  %call5 = call noundef zeroext i1 @_ZN9__gnu_cxxeqIPKSt10shared_ptrIN19OpenColorIO_v2_4dev16XmlReaderElementEESt6vectorIS4_SaIS4_EEEEbRKNS_17__normal_iteratorIT_T0_EESF_(ptr noundef nonnull align 8 dereferenceable(8) %ref.tmp, ptr noundef nonnull align 8 dereferenceable(8) %ref.tmp2) #3
  ret i1 %call5
}

; Function Attrs: mustprogress nounwind uwtable
define hidden noundef zeroext i1 @_ZNK19OpenColorIO_v2_4dev21XmlReaderElementStack5emptyEv(ptr noundef nonnull align 8 dereferenceable(32) %this) #4 align 2 {
entry:
  %this.addr = alloca ptr, align 8
  store ptr %this, ptr %this.addr, align 8
  %this1 = load ptr, ptr %this.addr, align 8
  %m_elms = getelementptr inbounds %"class.OpenColorIO_v2_4dev::XmlReaderElementStack", ptr %this1, i32 0, i32 1
  %call = call noundef zeroext i1 @_ZNKSt6vectorISt10shared_ptrIN19OpenColorIO_v2_4dev16XmlReaderElementEESaIS3_EE5emptyEv(ptr noundef nonnull align 8 dereferenceable(24) %m_elms) #3
  ret i1 %call
}