; Function Attrs: mustprogress nofree norecurse nosync nounwind willreturn memory(argmem: read) uwtable
define hidden noundef zeroext i1 @_ZNK19OpenColorIO_v2_4dev21XmlReaderElementStack5emptyEv(ptr nocapture noundef nonnull readonly align 8 dereferenceable(32) %this) local_unnamed_addr #11 align 2 {
entry:
  %m_elms = getelementptr inbounds i8, ptr %this, i64 8
  %0 = load ptr, ptr %m_elms, align 8
  %_M_finish.i.i = getelementptr inbounds i8, ptr %this, i64 16
  %1 = load ptr, ptr %_M_finish.i.i, align 8
  %cmp.i.i = icmp eq ptr %0, %1
  ret i1 %cmp.i.i
}